target datalayout = "e-m:e-p270:32:32-p271:32:32-p272:64:64-i64:64-i128:128-f80:128-n8:16:32:64-S128"
target triple = "x86_64-pc-linux-gnu"

@.str.1 = private unnamed_addr constant [37 x i8] c"../openssl/test/helpers/ssltestlib.c\00", align 1
@.str.69 = private unnamed_addr constant [10 x i8] c"readbytes\00", align 1
@.str.70 = private unnamed_addr constant [2 x i8] c"0\00", align 1
@.str.71 = private unnamed_addr constant [28 x i8] c"SSL_get_error(clientssl, 0)\00", align 1
@.str.72 = private unnamed_addr constant [20 x i8] c"SSL_ERROR_WANT_READ\00", align 1

; Function Attrs: nounwind uwtable
define dso_local i32 @create_ssl_connection(ptr noundef %0, ptr noundef %1, i32 noundef %2) #0 {
  %4 = alloca i32, align 4
  %5 = alloca ptr, align 8
  %6 = alloca ptr, align 8
  %7 = alloca i32, align 4
  %8 = alloca i32, align 4
  %9 = alloca i8, align 1
  %10 = alloca i64, align 8
  %11 = alloca i32, align 4
  store ptr %0, ptr %5, align 8, !tbaa !79
  store ptr %1, ptr %6, align 8, !tbaa !79
  store i32 %2, ptr %7, align 4, !tbaa !13
  call void @llvm.lifetime.start.p0(i64 4, ptr %8) #10
  call void @llvm.lifetime.start.p0(i64 1, ptr %9) #10
  call void @llvm.lifetime.start.p0(i64 8, ptr %10) #10
  %12 = load ptr, ptr %5, align 8, !tbaa !79
  %13 = load ptr, ptr %6, align 8, !tbaa !79
  %14 = load i32, ptr %7, align 4, !tbaa !13
  %15 = call i32 @create_bare_ssl_connection(ptr noundef %12, ptr noundef %13, i32 noundef %14, i32 noundef 1, i32 noundef 0)
  %16 = icmp ne i32 %15, 0
  br i1 %16, label %18, label %17

17:                                               ; preds = %3
  store i32 0, ptr %4, align 4
  store i32 1, ptr %11, align 4
  br label %44

18:                                               ; preds = %3
  store i32 0, ptr %8, align 4, !tbaa !13
  br label %19

19:                                               ; preds = %40, %18
  %20 = load i32, ptr %8, align 4, !tbaa !13
  %21 = icmp slt i32 %20, 2
  br i1 %21, label %22, label %43

22:                                               ; preds = %19
  %23 = load ptr, ptr %6, align 8, !tbaa !79
  %24 = call i32 @SSL_read_ex(ptr noundef %23, ptr noundef %9, i64 noundef 1, ptr noundef %10)
  %25 = icmp sgt i32 %24, 0
  br i1 %25, label %26, label %32

26:                                               ; preds = %22
  %27 = load i64, ptr %10, align 8, !tbaa !15
  %28 = call i32 @test_ulong_eq(ptr noundef @.str.1, i32 noundef 1360, ptr noundef @.str.69, ptr noundef @.str.70, i64 noundef %27, i64 noundef 0)
  %29 = icmp ne i32 %28, 0
  br i1 %29, label %31, label %30

30:                                               ; preds = %26
  store i32 0, ptr %4, align 4
  store i32 1, ptr %11, align 4
  br label %44

31:                                               ; preds = %26
  br label %39

32:                                               ; preds = %22
  %33 = load ptr, ptr %6, align 8, !tbaa !79
  %34 = call i32 @SSL_get_error(ptr noundef %33, i32 noundef 0)
  %35 = call i32 @test_int_eq(ptr noundef @.str.1, i32 noundef 1363, ptr noundef @.str.71, ptr noundef @.str.72, i32 noundef %34, i32 noundef 2)
  %36 = icmp ne i32 %35, 0
  br i1 %36, label %38, label %37

37:                                               ; preds = %32
  store i32 0, ptr %4, align 4
  store i32 1, ptr %11, align 4
  br label %44

38:                                               ; preds = %32
  br label %39

39:                                               ; preds = %38, %31
  br label %40

40:                                               ; preds = %39
  %41 = load i32, ptr %8, align 4, !tbaa !13
  %42 = add nsw i32 %41, 1
  store i32 %42, ptr %8, align 4, !tbaa !13
  br label %19, !llvm.loop !86

43:                                               ; preds = %19
  store i32 1, ptr %4, align 4
  store i32 1, ptr %11, align 4
  br label %44

44:                                               ; preds = %43, %37, %30, %17
  call void @llvm.lifetime.end.p0(i64 8, ptr %10) #10
  call void @llvm.lifetime.end.p0(i64 1, ptr %9) #10
  call void @llvm.lifetime.end.p0(i64 4, ptr %8) #10
  %45 = load i32, ptr %4, align 4
  ret i32 %45
}