; Function Attrs: nounwind uwtable
define dso_local range(i32 0, 2) i32 @create_ssl_connection(ptr noundef %0, ptr noundef %1, i32 noundef %2) local_unnamed_addr #0 {
  %4 = alloca i8, align 1
  %5 = alloca i64, align 8
  call void @llvm.lifetime.start.p0(i64 1, ptr nonnull %4) #14
  call void @llvm.lifetime.start.p0(i64 8, ptr nonnull %5) #14
  %6 = tail call i32 @create_bare_ssl_connection(ptr noundef %0, ptr noundef %1, i32 noundef %2, i32 noundef 1, i32 noundef 0)
  %.not = icmp eq i32 %6, 0
  br i1 %.not, label %.loopexit, label %.preheader

.preheader:                                       ; preds = %3, %.preheader.backedge
  %.not11 = phi i1 [ true, %.preheader.backedge ], [ false, %3 ]
  %7 = call i32 @SSL_read_ex(ptr noundef %1, ptr noundef nonnull %4, i64 noundef 1, ptr noundef nonnull %5) #14
  %8 = icmp sgt i32 %7, 0
  br i1 %8, label %9, label %12

9:                                                ; preds = %.preheader
  %10 = load i64, ptr %5, align 8, !tbaa !50
  %11 = call i32 @test_ulong_eq(ptr noundef nonnull @.str.1, i32 noundef 1360, ptr noundef nonnull @.str.69, ptr noundef nonnull @.str.70, i64 noundef %10, i64 noundef 0) #14
  %.not9 = icmp eq i32 %11, 0
  %brmerge = or i1 %.not9, %.not11
  br i1 %brmerge, label %.loopexit.loopexit, label %.preheader.backedge

.preheader.backedge:                              ; preds = %9, %12
  br label %.preheader

12:                                               ; preds = %.preheader
  %13 = call i32 @SSL_get_error(ptr noundef %1, i32 noundef 0) #14
  %14 = call i32 @test_int_eq(ptr noundef nonnull @.str.1, i32 noundef 1363, ptr noundef nonnull @.str.71, ptr noundef nonnull @.str.72, i32 noundef %13, i32 noundef 2) #14
  %.not8 = icmp eq i32 %14, 0
  %brmerge13 = or i1 %.not8, %.not11
  br i1 %brmerge13, label %.loopexit.loopexit, label %.preheader.backedge

.loopexit.loopexit:                               ; preds = %12, %9
  %.07.shrunk.ph.in = phi i1 [ %.not8, %12 ], [ %.not9, %9 ]
  %.07.shrunk.ph = xor i1 %.07.shrunk.ph.in, true
  %15 = zext i1 %.07.shrunk.ph to i32
  br label %.loopexit

.loopexit:                                        ; preds = %.loopexit.loopexit, %3
  %.07.shrunk = phi i32 [ 0, %3 ], [ %15, %.loopexit.loopexit ]
  call void @llvm.lifetime.end.p0(i64 8, ptr nonnull %5) #14
  call void @llvm.lifetime.end.p0(i64 1, ptr nonnull %4) #14
  ret i32 %.07.shrunk
}